; Function Attrs: mustprogress nofree norecurse nosync nounwind willreturn memory(write, argmem: readwrite, inaccessiblemem: none) uwtable
define void @Fxu_ListDoubleDelPair(ptr noundef captures(none) %0, ptr noundef readonly %1) local_unnamed_addr #0 {
  %3 = getelementptr inbounds nuw i8, ptr %0, i64 16
  %4 = load ptr, ptr %3, align 8, !tbaa !64
  %5 = icmp eq ptr %4, %1
  br i1 %5, label %6, label %9

6:                                                ; preds = %2
  %7 = getelementptr inbounds nuw i8, ptr %1, i64 56
  %8 = load ptr, ptr %7, align 8, !tbaa !66
  store ptr %8, ptr %3, align 8, !tbaa !64
  br label %9

9:                                                ; preds = %6, %2
  %10 = getelementptr inbounds nuw i8, ptr %0, i64 24
  %11 = load ptr, ptr %10, align 8, !tbaa !65
  %12 = icmp eq ptr %11, %1
  %13 = getelementptr inbounds nuw i8, ptr %1, i64 48
  %14 = load ptr, ptr %13, align 8, !tbaa !68
  br i1 %12, label %15, label %._crit_edge

15:                                               ; preds = %9
  store ptr %14, ptr %10, align 8, !tbaa !65
  br label %._crit_edge

._crit_edge:                                      ; preds = %9, %15
  %.not = icmp eq ptr %14, null
  %.phi.trans.insert20 = getelementptr inbounds nuw i8, ptr %1, i64 56
  %.pre21 = load ptr, ptr %.phi.trans.insert20, align 8, !tbaa !66
  br i1 %.not, label %._crit_edge19, label %16

16:                                               ; preds = %._crit_edge
  %17 = getelementptr inbounds nuw i8, ptr %14, i64 56
  store ptr %.pre21, ptr %17, align 8, !tbaa !66
  br label %._crit_edge19

._crit_edge19:                                    ; preds = %._crit_edge, %16
  %.not18 = icmp eq ptr %.pre21, null
  br i1 %.not18, label %20, label %18

18:                                               ; preds = %._crit_edge19
  %19 = getelementptr inbounds nuw i8, ptr %.pre21, i64 48
  store ptr %14, ptr %19, align 8, !tbaa !68
  br label %20

20:                                               ; preds = %18, %._crit_edge19
  %21 = getelementptr inbounds nuw i8, ptr %0, i64 32
  %22 = load i32, ptr %21, align 8, !tbaa !69
  %23 = add nsw i32 %22, -1
  store i32 %23, ptr %21, align 8, !tbaa !69
  ret void
}